; Function Attrs: mustprogress uwtable
define internal fastcc void @_ZL21TimeZoneDataDirInitFnR10UErrorCode(ptr noundef nonnull align 4 dereferenceable(4) %0) unnamed_addr #1 personality ptr @__gxx_personality_v0 {
  %2 = alloca %"class.icu_77::StringPiece", align 8
  tail call void @ucln_common_registerCleanup_77(i32 noundef 24, ptr noundef nonnull @_ZL13putil_cleanupv)
  %3 = tail call noundef ptr @_ZN6icu_777UMemorynwEm(i64 noundef 64) #32
  %4 = icmp eq ptr %3, null
  br i1 %4, label %6, label %5

5:                                                ; preds = %1
  invoke void @_ZN6icu_7715MaybeStackArrayIcLi40EEC1Ev(ptr noundef nonnull align 8 dereferenceable(60) %3)
          to label %9 unwind label %7

6:                                                ; preds = %1
  store ptr null, ptr @_ZL23gTimeZoneFilesDirectory, align 8, !tbaa !41
  store i32 7, ptr %0, align 4, !tbaa !13
  br label %22

7:                                                ; preds = %5
  %8 = landingpad { ptr, i32 }
          cleanup
  tail call void @_ZN6icu_777UMemorydlEPv(ptr noundef nonnull %3) #32
  resume { ptr, i32 } %8

9:                                                ; preds = %5
  %10 = getelementptr inbounds nuw i8, ptr %3, i64 56
  store i32 0, ptr %10, align 8, !tbaa !39
  %11 = load ptr, ptr %3, align 8, !tbaa !3
  store i8 0, ptr %11, align 1, !tbaa !21
  store ptr %3, ptr @_ZL23gTimeZoneFilesDirectory, align 8, !tbaa !41
  %12 = tail call ptr @getenv(ptr noundef nonnull @.str.178) #32
  call void @llvm.lifetime.start.p0(i64 16, ptr nonnull %2)
  %13 = load i32, ptr %0, align 4, !tbaa !13
  %14 = icmp slt i32 %13, 1
  br i1 %14, label %15, label %_ZL19setTimeZoneFilesDirPKcR10UErrorCode.exit

15:                                               ; preds = %9
  %16 = icmp eq ptr %12, null
  %spec.store.select = select i1 %16, ptr @.str.5, ptr %12
  store i32 0, ptr %10, align 8, !tbaa !39
  %17 = load ptr, ptr %3, align 8, !tbaa !3
  store i8 0, ptr %17, align 1, !tbaa !21
  call void @_ZN6icu_7711StringPieceC1EPKc(ptr noundef nonnull align 8 dereferenceable(12) %2, ptr noundef nonnull %spec.store.select)
  %18 = load ptr, ptr %2, align 8
  %19 = getelementptr inbounds nuw i8, ptr %2, i64 8
  %20 = load i32, ptr %19, align 8
  %21 = call noundef nonnull align 8 dereferenceable(60) ptr @_ZN6icu_7710CharString6appendEPKciR10UErrorCode(ptr noundef nonnull align 8 dereferenceable(60) %3, ptr noundef %18, i32 noundef %20, ptr noundef nonnull align 4 dereferenceable(4) %0)
  br label %_ZL19setTimeZoneFilesDirPKcR10UErrorCode.exit

_ZL19setTimeZoneFilesDirPKcR10UErrorCode.exit:    ; preds = %9, %15
  call void @llvm.lifetime.end.p0(i64 16, ptr nonnull %2)
  br label %22

22:                                               ; preds = %_ZL19setTimeZoneFilesDirPKcR10UErrorCode.exit, %6
  ret void
}